target datalayout = "e-m:e-p270:32:32-p271:32:32-p272:64:64-i64:64-i128:128-f80:128-n8:16:32:64-S128"
target triple = "x86_64-pc-linux-gnu"

@to_timestamp = internal global i64 0, align 8
@.str.42 = private unnamed_addr constant [16 x i8] c"%s %s is valid\0A\00", align 1
@.str.43 = private unnamed_addr constant [16 x i8] c"%s %s is empty\0A\00", align 1
@.str.44 = private unnamed_addr constant [48 x i8] c"Successfully truncated AOF %s to timestamp %ld\0A\00", align 1
@.str.45 = private unnamed_addr constant [31 x i8] c"Successfully truncated AOF %s\0A\00", align 1
@.str.54 = private unnamed_addr constant [30 x i8] c"Start checking Old-Style AOF\0A\00", align 1
@.str.55 = private unnamed_addr constant [4 x i8] c"AOF\00", align 1

; Function Attrs: nounwind uwtable
define dso_local void @printAofStyle(i32 noundef %0, ptr noundef %1, ptr noundef %2) #0 {
  %4 = alloca i32, align 4
  %5 = alloca ptr, align 8
  %6 = alloca ptr, align 8
  store i32 %0, ptr %4, align 4, !tbaa !23
  store ptr %1, ptr %5, align 8, !tbaa !5
  store ptr %2, ptr %6, align 8, !tbaa !5
  %7 = load i32, ptr %4, align 4, !tbaa !23
  %8 = icmp eq i32 %7, 0
  br i1 %8, label %9, label %13

9:                                                ; preds = %3
  %10 = load ptr, ptr %6, align 8, !tbaa !5
  %11 = load ptr, ptr %5, align 8, !tbaa !5
  %12 = call i32 (ptr, ...) @printf(ptr noundef @.str.42, ptr noundef %10, ptr noundef %11)
  br label %36

13:                                               ; preds = %3
  %14 = load i32, ptr %4, align 4, !tbaa !23
  %15 = icmp eq i32 %14, 1
  br i1 %15, label %16, label %20

16:                                               ; preds = %13
  %17 = load ptr, ptr %6, align 8, !tbaa !5
  %18 = load ptr, ptr %5, align 8, !tbaa !5
  %19 = call i32 (ptr, ...) @printf(ptr noundef @.str.43, ptr noundef %17, ptr noundef %18)
  br label %35

20:                                               ; preds = %13
  %21 = load i32, ptr %4, align 4, !tbaa !23
  %22 = icmp eq i32 %21, 3
  br i1 %22, label %23, label %27

23:                                               ; preds = %20
  %24 = load ptr, ptr %5, align 8, !tbaa !5
  %25 = load i64, ptr @to_timestamp, align 8, !tbaa !11
  %26 = call i32 (ptr, ...) @printf(ptr noundef @.str.44, ptr noundef %24, i64 noundef %25)
  br label %34

27:                                               ; preds = %20
  %28 = load i32, ptr %4, align 4, !tbaa !23
  %29 = icmp eq i32 %28, 2
  br i1 %29, label %30, label %33

30:                                               ; preds = %27
  %31 = load ptr, ptr %5, align 8, !tbaa !5
  %32 = call i32 (ptr, ...) @printf(ptr noundef @.str.45, ptr noundef %31)
  br label %33

33:                                               ; preds = %30, %27
  br label %34

34:                                               ; preds = %33, %23
  br label %35

35:                                               ; preds = %34, %16
  br label %36

36:                                               ; preds = %35, %9
  ret void
}

; Function Attrs: nounwind uwtable
define dso_local void @checkOldStyleAof(ptr noundef %0, i32 noundef %1, i32 noundef %2) #0 {
  %4 = alloca ptr, align 8
  %5 = alloca i32, align 4
  %6 = alloca i32, align 4
  %7 = alloca i32, align 4
  store ptr %0, ptr %4, align 8, !tbaa !5
  store i32 %1, ptr %5, align 4, !tbaa !23
  store i32 %2, ptr %6, align 4, !tbaa !23
  %8 = call i32 (ptr, ...) @printf(ptr noundef @.str.54)
  call void @llvm.lifetime.start.p0(i64 4, ptr %7) #10
  %9 = load ptr, ptr %4, align 8, !tbaa !5
  %10 = load ptr, ptr %4, align 8, !tbaa !5
  %11 = load i32, ptr %5, align 4, !tbaa !23
  %12 = load i32, ptr %6, align 4, !tbaa !23
  %13 = call i32 @checkSingleAof(ptr noundef %9, ptr noundef %10, i32 noundef 1, i32 noundef %11, i32 noundef %12)
  store i32 %13, ptr %7, align 4, !tbaa !23
  %14 = load i32, ptr %7, align 4, !tbaa !23
  %15 = load ptr, ptr %4, align 8, !tbaa !5
  call void @printAofStyle(i32 noundef %14, ptr noundef %15, ptr noundef @.str.55)
  call void @llvm.lifetime.end.p0(i64 4, ptr %7) #10
  ret void
}