; Function Attrs: nounwind uwtable
define dso_local void @checkOldStyleAof(ptr noundef %0, i32 noundef %1, i32 noundef %2) local_unnamed_addr #4 {
  %puts = tail call i32 @puts(ptr nonnull dereferenceable(1) @str.8)
  %4 = tail call i32 @checkSingleAof(ptr noundef %0, ptr noundef %0, i32 noundef 1, i32 noundef %1, i32 noundef %2)
  switch i32 %4, label %default.unreachable5 [
    i32 0, label %5
    i32 1, label %7
    i32 3, label %9
    i32 2, label %12
  ]

5:                                                ; preds = %3
  %6 = tail call i32 (ptr, ...) @printf(ptr noundef nonnull dereferenceable(1) @.str.42, ptr noundef nonnull @.str.55, ptr noundef %0)
  br label %printAofStyle.exit

7:                                                ; preds = %3
  %8 = tail call i32 (ptr, ...) @printf(ptr noundef nonnull dereferenceable(1) @.str.43, ptr noundef nonnull @.str.55, ptr noundef %0)
  br label %printAofStyle.exit

9:                                                ; preds = %3
  %10 = load i64, ptr @to_timestamp, align 8, !tbaa !8
  %11 = tail call i32 (ptr, ...) @printf(ptr noundef nonnull dereferenceable(1) @.str.44, ptr noundef %0, i64 noundef %10)
  br label %printAofStyle.exit

12:                                               ; preds = %3
  %13 = tail call i32 (ptr, ...) @printf(ptr noundef nonnull dereferenceable(1) @.str.45, ptr noundef %0)
  br label %printAofStyle.exit

default.unreachable5:                             ; preds = %3
  unreachable

printAofStyle.exit:                               ; preds = %5, %7, %9, %12
  ret void
}